; Function Attrs: mustprogress uwtable
define void @_ZN8proxygen22ZlibStreamDecompressor4initENS_15CompressionTypeE(ptr noundef nonnull align 8 dereferenceable(148) %this, i32 noundef %type) local_unnamed_addr #0 align 2 personality ptr @__gxx_personality_v0 {
entry:
  %type_11 = getelementptr inbounds i8, ptr %this, i64 8
  store i32 %type, ptr %type_11, align 8
  %status_ = getelementptr inbounds i8, ptr %this, i64 144
  store i32 0, ptr %status_, align 8
  %zlibStream_ = getelementptr inbounds i8, ptr %this, i64 32
  %zalloc = getelementptr inbounds i8, ptr %this, i64 96
  %total_in = getelementptr inbounds i8, ptr %this, i64 48
  store ptr null, ptr %zlibStream_, align 8
  %avail_in = getelementptr inbounds i8, ptr %this, i64 40
  store i32 0, ptr %avail_in, align 8
  %cmp44 = icmp eq i32 %type, 2
  %cond = select i1 %cmp44, i32 31, i32 15
  tail call void @llvm.memset.p0.i64(ptr noundef nonnull align 8 dereferenceable(20) %total_in, i8 0, i64 20, i1 false)
  tail call void @llvm.memset.p0.i64(ptr noundef nonnull align 8 dereferenceable(24) %zalloc, i8 0, i64 24, i1 false)
  %call46 = tail call i32 @inflateInit2_(ptr noundef nonnull %zlibStream_, i32 noundef %cond, ptr noundef nonnull @.str.4, i32 noundef 112)
  store i32 %call46, ptr %status_, align 8
  ret void
}